; ModuleID = '33/1463.c'
source_filename = "33/1463.c"
target datalayout = "e-m:e-p270:32:32-p271:32:32-p272:64:64-i64:64-f80:128-n8:16:32:64-S128"
target triple = "x86_64-pc-linux-gnu"

@.str = private unnamed_addr constant [3 x i8] c"%d\00", align 1
@.str.1 = private unnamed_addr constant [3 x i8] c"%s\00", align 1
@.str.2 = private unnamed_addr constant [4 x i8] c"%s\0A\00", align 1

; Function Attrs: noinline nounwind uwtable
define dso_local i32 @main() #0 {
  %1 = alloca i32, align 4
  %2 = alloca i32, align 4
  %3 = alloca i8*, align 8
  %4 = alloca i64, align 8
  %5 = alloca i64, align 8
  %6 = alloca i32, align 4
  %7 = alloca i32, align 4
  %8 = alloca i32, align 4
  %9 = alloca i32, align 4
  %10 = alloca i32, align 4
  store i32 0, i32* %1, align 4
  %11 = call i32 (i8*, ...) @__isoc99_scanf(i8* getelementptr inbounds ([3 x i8], [3 x i8]* @.str, i64 0, i64 0), i32* %2)
  %12 = load i32, i32* %2, align 4
  %13 = zext i32 %12 to i64
  %14 = call i8* @llvm.stacksave()
  store i8* %14, i8** %3, align 8
  %15 = alloca [260 x i8], i64 %13, align 16
  store i64 %13, i64* %4, align 8
  %16 = load i32, i32* %2, align 4
  %17 = zext i32 %16 to i64
  %18 = alloca [260 x i8], i64 %17, align 16
  store i64 %17, i64* %5, align 8
  store i32 0, i32* %6, align 4
  br label %19

19:                                               ; preds = %131, %0
  %20 = load i32, i32* %6, align 4
  %21 = load i32, i32* %2, align 4
  %22 = icmp slt i32 %20, %21
  br i1 %22, label %23, label %134

23:                                               ; preds = %19
  %24 = load i32, i32* %6, align 4
  %25 = sext i32 %24 to i64
  %26 = getelementptr inbounds [260 x i8], [260 x i8]* %15, i64 %25
  %27 = getelementptr inbounds [260 x i8], [260 x i8]* %26, i64 0, i64 0
  %28 = call i32 (i8*, ...) @__isoc99_scanf(i8* getelementptr inbounds ([3 x i8], [3 x i8]* @.str.1, i64 0, i64 0), i8* %27)
  %29 = load i32, i32* %6, align 4
  %30 = sext i32 %29 to i64
  %31 = getelementptr inbounds [260 x i8], [260 x i8]* %15, i64 %30
  %32 = getelementptr inbounds [260 x i8], [260 x i8]* %31, i64 0, i64 0
  %33 = call i64 @strlen(i8* %32) #4
  %34 = trunc i64 %33 to i32
  store i32 %34, i32* %7, align 4
  store i32 0, i32* %8, align 4
  br label %35

35:                                               ; preds = %111, %23
  %36 = load i32, i32* %8, align 4
  %37 = load i32, i32* %7, align 4
  %38 = icmp slt i32 %36, %37
  br i1 %38, label %39, label %114

39:                                               ; preds = %35
  %40 = load i32, i32* %6, align 4
  %41 = sext i32 %40 to i64
  %42 = getelementptr inbounds [260 x i8], [260 x i8]* %15, i64 %41
  %43 = load i32, i32* %8, align 4
  %44 = sext i32 %43 to i64
  %45 = getelementptr inbounds [260 x i8], [260 x i8]* %42, i64 0, i64 %44
  %46 = load i8, i8* %45, align 1
  %47 = sext i8 %46 to i32
  %48 = icmp eq i32 %47, 65
  br i1 %48, label %49, label %56

49:                                               ; preds = %39
  %50 = load i32, i32* %6, align 4
  %51 = sext i32 %50 to i64
  %52 = getelementptr inbounds [260 x i8], [260 x i8]* %18, i64 %51
  %53 = load i32, i32* %8, align 4
  %54 = sext i32 %53 to i64
  %55 = getelementptr inbounds [260 x i8], [260 x i8]* %52, i64 0, i64 %54
  store i8 84, i8* %55, align 1
  br label %110

56:                                               ; preds = %39
  %57 = load i32, i32* %6, align 4
  %58 = sext i32 %57 to i64
  %59 = getelementptr inbounds [260 x i8], [260 x i8]* %15, i64 %58
  %60 = load i32, i32* %8, align 4
  %61 = sext i32 %60 to i64
  %62 = getelementptr inbounds [260 x i8], [260 x i8]* %59, i64 0, i64 %61
  %63 = load i8, i8* %62, align 1
  %64 = sext i8 %63 to i32
  %65 = icmp eq i32 %64, 84
  br i1 %65, label %66, label %73

66:                                               ; preds = %56
  %67 = load i32, i32* %6, align 4
  %68 = sext i32 %67 to i64
  %69 = getelementptr inbounds [260 x i8], [260 x i8]* %18, i64 %68
  %70 = load i32, i32* %8, align 4
  %71 = sext i32 %70 to i64
  %72 = getelementptr inbounds [260 x i8], [260 x i8]* %69, i64 0, i64 %71
  store i8 65, i8* %72, align 1
  br label %109

73:                                               ; preds = %56
  %74 = load i32, i32* %6, align 4
  %75 = sext i32 %74 to i64
  %76 = getelementptr inbounds [260 x i8], [260 x i8]* %15, i64 %75
  %77 = load i32, i32* %8, align 4
  %78 = sext i32 %77 to i64
  %79 = getelementptr inbounds [260 x i8], [260 x i8]* %76, i64 0, i64 %78
  %80 = load i8, i8* %79, align 1
  %81 = sext i8 %80 to i32
  %82 = icmp eq i32 %81, 67
  br i1 %82, label %83, label %90

83:                                               ; preds = %73
  %84 = load i32, i32* %6, align 4
  %85 = sext i32 %84 to i64
  %86 = getelementptr inbounds [260 x i8], [260 x i8]* %18, i64 %85
  %87 = load i32, i32* %8, align 4
  %88 = sext i32 %87 to i64
  %89 = getelementptr inbounds [260 x i8], [260 x i8]* %86, i64 0, i64 %88
  store i8 71, i8* %89, align 1
  br label %108

90:                                               ; preds = %73
  %91 = load i32, i32* %6, align 4
  %92 = sext i32 %91 to i64
  %93 = getelementptr inbounds [260 x i8], [260 x i8]* %15, i64 %92
  %94 = load i32, i32* %8, align 4
  %95 = sext i32 %94 to i64
  %96 = getelementptr inbounds [260 x i8], [260 x i8]* %93, i64 0, i64 %95
  %97 = load i8, i8* %96, align 1
  %98 = sext i8 %97 to i32
  %99 = icmp eq i32 %98, 71
  br i1 %99, label %100, label %107

100:                                              ; preds = %90
  %101 = load i32, i32* %6, align 4
  %102 = sext i32 %101 to i64
  %103 = getelementptr inbounds [260 x i8], [260 x i8]* %18, i64 %102
  %104 = load i32, i32* %8, align 4
  %105 = sext i32 %104 to i64
  %106 = getelementptr inbounds [260 x i8], [260 x i8]* %103, i64 0, i64 %105
  store i8 67, i8* %106, align 1
  br label %107

107:                                              ; preds = %100, %90
  br label %108

108:                                              ; preds = %107, %83
  br label %109

109:                                              ; preds = %108, %66
  br label %110

110:                                              ; preds = %109, %49
  br label %111

111:                                              ; preds = %110
  %112 = load i32, i32* %8, align 4
  %113 = add nsw i32 %112, 1
  store i32 %113, i32* %8, align 4
  br label %35

114:                                              ; preds = %35
  %115 = load i32, i32* %7, align 4
  store i32 %115, i32* %9, align 4
  br label %116

116:                                              ; preds = %127, %114
  %117 = load i32, i32* %9, align 4
  %118 = load i32, i32* %2, align 4
  %119 = icmp slt i32 %117, %118
  br i1 %119, label %120, label %130

120:                                              ; preds = %116
  %121 = load i32, i32* %6, align 4
  %122 = sext i32 %121 to i64
  %123 = getelementptr inbounds [260 x i8], [260 x i8]* %18, i64 %122
  %124 = load i32, i32* %9, align 4
  %125 = sext i32 %124 to i64
  %126 = getelementptr inbounds [260 x i8], [260 x i8]* %123, i64 0, i64 %125
  store i8 0, i8* %126, align 1
  br label %127

127:                                              ; preds = %120
  %128 = load i32, i32* %9, align 4
  %129 = add nsw i32 %128, 1
  store i32 %129, i32* %9, align 4
  br label %116

130:                                              ; preds = %116
  br label %131

131:                                              ; preds = %130
  %132 = load i32, i32* %6, align 4
  %133 = add nsw i32 %132, 1
  store i32 %133, i32* %6, align 4
  br label %19

134:                                              ; preds = %19
  store i32 0, i32* %10, align 4
  br label %135

135:                                              ; preds = %146, %134
  %136 = load i32, i32* %10, align 4
  %137 = load i32, i32* %2, align 4
  %138 = sub nsw i32 %137, 1
  %139 = icmp slt i32 %136, %138
  br i1 %139, label %140, label %149

140:                                              ; preds = %135
  %141 = load i32, i32* %10, align 4
  %142 = sext i32 %141 to i64
  %143 = getelementptr inbounds [260 x i8], [260 x i8]* %18, i64 %142
  %144 = getelementptr inbounds [260 x i8], [260 x i8]* %143, i64 0, i64 0
  %145 = call i32 (i8*, ...) @printf(i8* getelementptr inbounds ([4 x i8], [4 x i8]* @.str.2, i64 0, i64 0), i8* %144)
  br label %146

146:                                              ; preds = %140
  %147 = load i32, i32* %10, align 4
  %148 = add nsw i32 %147, 1
  store i32 %148, i32* %10, align 4
  br label %135

149:                                              ; preds = %135
  %150 = load i32, i32* %2, align 4
  %151 = sub nsw i32 %150, 1
  %152 = sext i32 %151 to i64
  %153 = getelementptr inbounds [260 x i8], [260 x i8]* %18, i64 %152
  %154 = getelementptr inbounds [260 x i8], [260 x i8]* %153, i64 0, i64 0
  %155 = call i32 (i8*, ...) @printf(i8* getelementptr inbounds ([3 x i8], [3 x i8]* @.str.1, i64 0, i64 0), i8* %154)
  store i32 0, i32* %1, align 4
  %156 = load i8*, i8** %3, align 8
  call void @llvm.stackrestore(i8* %156)
  %157 = load i32, i32* %1, align 4
  ret i32 %157
}

declare dso_local i32 @__isoc99_scanf(i8*, ...) #1

; Function Attrs: nounwind
declare i8* @llvm.stacksave() #2

; Function Attrs: nounwind readonly
declare dso_local i64 @strlen(i8*) #3

declare dso_local i32 @printf(i8*, ...) #1

; Function Attrs: nounwind
declare void @llvm.stackrestore(i8*) #2


!llvm.module.flags = !{!0}
!llvm.ident = !{!1}

!0 = !{i32 1, !"wchar_size", i32 4}
!1 = !{!"clang version 10.0.0-4ubuntu1 "}
